target datalayout = "e-m:e-p270:32:32-p271:32:32-p272:64:64-i64:64-i128:128-f80:128-n8:16:32:64-S128"
target triple = "x86_64-pc-linux-gnu"

%struct.mbedtls_ssl_context = type { ptr, i32, i32, i32, i32, i32, ptr, ptr, ptr, ptr, ptr, ptr, ptr, ptr, ptr, ptr, ptr, ptr, ptr, ptr, ptr, ptr, ptr, ptr, ptr, ptr, ptr, ptr, ptr, ptr, ptr, ptr, ptr, i32, i64, i64, i16, i64, i64, i64, i64, i32, i32, i8, i8, i32, i8, ptr, ptr, ptr, ptr, ptr, ptr, ptr, i32, i64, i64, [8 x i8], i16, ptr, ptr, ptr, i64, i32, i64, [12 x i8], [12 x i8], [32 x i8], i8, i8, ptr, ptr, %union.mbedtls_ssl_user_data_t }
%union.mbedtls_ssl_user_data_t = type { i64 }
%struct.mbedtls_ssl_config = type { i32, i32, i8, i8, i8, i8, i8, i8, i8, i8, i8, i8, i16, i8, i8, i8, ptr, i32, ptr, ptr, ptr, ptr, ptr, ptr, ptr, ptr, ptr, ptr, ptr, ptr, ptr, ptr, ptr, ptr, ptr, ptr, ptr, i64, ptr, ptr, ptr, ptr, ptr, ptr, ptr, ptr, %struct.mbedtls_mpi, %struct.mbedtls_mpi, ptr, i64, ptr, i64, ptr, i32, i32, i32, i32, [8 x i8], i32, i32, %union.mbedtls_ssl_user_data_t, ptr, ptr }
%struct.mbedtls_mpi = type { ptr, i16, i16 }
%struct.mbedtls_ssl_handshake_params = type { i8, i8, i8, i8, i8, i32, i8, i8, i8, i8, ptr, ptr, ptr, ptr, ptr, i8, i8, i8, i8, i16, i16, [20 x i16], ptr, ptr, %struct.mbedtls_dhm_context, %struct.mbedtls_ecdh_context, i16, i64, i32, i8, [1024 x i8], i64, ptr, ptr, i64, i16, ptr, ptr, ptr, ptr, %struct.anon, ptr, i16, i8, i32, i32, i32, ptr, ptr, ptr, i32, ptr, [8 x i8], i8, [32 x i8], i8, i16, %struct.mbedtls_md_context_t, %struct.mbedtls_md_context_t, i16, i8, %union.anon.1, [64 x i8], [1076 x i8], i64, i32, i32, i8, ptr, ptr, %union.anon.4, %struct.mbedtls_ssl_tls13_handshake_secrets, ptr, i64, ptr }
%struct.mbedtls_dhm_context = type { %struct.mbedtls_mpi, %struct.mbedtls_mpi, %struct.mbedtls_mpi, %struct.mbedtls_mpi, %struct.mbedtls_mpi, %struct.mbedtls_mpi, %struct.mbedtls_mpi, %struct.mbedtls_mpi, %struct.mbedtls_mpi, %struct.mbedtls_mpi }
%struct.mbedtls_ecdh_context = type { i8, i32, i32, %union.anon }
%union.anon = type { %struct.mbedtls_ecdh_context_mbed }
%struct.mbedtls_ecdh_context_mbed = type { %struct.mbedtls_ecp_group, %struct.mbedtls_mpi, %struct.mbedtls_ecp_point, %struct.mbedtls_ecp_point, %struct.mbedtls_mpi }
%struct.mbedtls_ecp_group = type { i32, %struct.mbedtls_mpi, %struct.mbedtls_mpi, %struct.mbedtls_mpi, %struct.mbedtls_ecp_point, %struct.mbedtls_mpi, i64, i64, i32, ptr, ptr, ptr, ptr, ptr, i64 }
%struct.mbedtls_ecp_point = type { %struct.mbedtls_mpi, %struct.mbedtls_mpi, %struct.mbedtls_mpi }
%struct.anon = type { i64, i8, [4 x %struct.mbedtls_ssl_hs_buffer], %struct.anon.0 }
%struct.mbedtls_ssl_hs_buffer = type { i8, ptr, i64 }
%struct.anon.0 = type { ptr, i64, i32 }
%struct.mbedtls_md_context_t = type { ptr, ptr, ptr }
%union.anon.1 = type { %struct.anon.2 }
%struct.anon.2 = type { i8, [64 x i8], i64 }
%union.anon.4 = type { [64 x i8] }
%struct.mbedtls_ssl_tls13_handshake_secrets = type { [64 x i8], [64 x i8] }

@.str = private unnamed_addr constant [130 x i8] c"generated/home/dtcxzyw/WorkSpace/Projects/compilers/llvm-opt-benchmark/bench/lief/bench_build/mbed_src/library/ssl_tls13_client.c\00", align 1
@.str.66 = private unnamed_addr constant [22 x i8] c"Unknown key exchange.\00", align 1
@.str.67 = private unnamed_addr constant [40 x i8] c"Key exchange mode(%s) is not supported.\00", align 1
@.str.68 = private unnamed_addr constant [31 x i8] c"Selected key exchange mode: %s\00", align 1
@.str.69 = private unnamed_addr constant [43 x i8] c"mbedtls_ssl_tls13_key_schedule_stage_early\00", align 1
@.str.70 = private unnamed_addr constant [46 x i8] c"mbedtls_ssl_tls13_compute_handshake_transform\00", align 1
@.str.71 = private unnamed_addr constant [45 x i8] c"Switch to handshake keys for inbound traffic\00", align 1
@.str.72 = private unnamed_addr constant [4 x i8] c"psk\00", align 1
@.str.73 = private unnamed_addr constant [10 x i8] c"ephemeral\00", align 1
@.str.74 = private unnamed_addr constant [14 x i8] c"psk_ephemeral\00", align 1
@.str.75 = private unnamed_addr constant [13 x i8] c"unknown mode\00", align 1

; Function Attrs: nounwind uwtable
define internal ptr @ssl_tls13_get_kex_mode_str(i32 noundef %0) #0 {
  %2 = alloca ptr, align 8
  %3 = alloca i32, align 4
  store i32 %0, ptr %3, align 4, !tbaa !12
  %4 = load i32, ptr %3, align 4, !tbaa !12
  switch i32 %4, label %8 [
    i32 1, label %5
    i32 2, label %6
    i32 4, label %7
  ]

5:                                                ; preds = %1
  store ptr @.str.72, ptr %2, align 8
  br label %9

6:                                                ; preds = %1
  store ptr @.str.73, ptr %2, align 8
  br label %9

7:                                                ; preds = %1
  store ptr @.str.74, ptr %2, align 8
  br label %9

8:                                                ; preds = %1
  store ptr @.str.75, ptr %2, align 8
  br label %9

9:                                                ; preds = %8, %7, %6, %5
  %10 = load ptr, ptr %2, align 8
  ret ptr %10
}

; Function Attrs: inlinehint nounwind uwtable
define internal i32 @mbedtls_ssl_conf_tls13_is_kex_mode_enabled(ptr noundef %0, i32 noundef %1) #3 {
  %3 = alloca ptr, align 8
  %4 = alloca i32, align 4
  store ptr %0, ptr %3, align 8, !tbaa !3
  store i32 %1, ptr %4, align 4, !tbaa !12
  %5 = load ptr, ptr %3, align 8, !tbaa !3
  %6 = getelementptr inbounds nuw %struct.mbedtls_ssl_context, ptr %5, i32 0, i32 0
  %7 = load ptr, ptr %6, align 8, !tbaa !29
  %8 = getelementptr inbounds nuw %struct.mbedtls_ssl_config, ptr %7, i32 0, i32 17
  %9 = load i32, ptr %8, align 8, !tbaa !78
  %10 = load i32, ptr %4, align 4, !tbaa !12
  %11 = and i32 %9, %10
  %12 = icmp ne i32 %11, 0
  %13 = zext i1 %12 to i32
  ret i32 %13
}

; Function Attrs: nounwind uwtable
define internal i32 @ssl_tls13_postprocess_server_hello(ptr noundef %0) #0 {
  %2 = alloca ptr, align 8
  %3 = alloca i32, align 4
  %4 = alloca ptr, align 8
  store ptr %0, ptr %2, align 8, !tbaa !3
  call void @llvm.lifetime.start.p0(i64 4, ptr %3) #10
  store i32 -110, ptr %3, align 4, !tbaa !12
  call void @llvm.lifetime.start.p0(i64 8, ptr %4) #10
  %5 = load ptr, ptr %2, align 8, !tbaa !3
  %6 = getelementptr inbounds nuw %struct.mbedtls_ssl_context, ptr %5, i32 0, i32 16
  %7 = load ptr, ptr %6, align 8, !tbaa !52
  store ptr %7, ptr %4, align 8, !tbaa !65
  %8 = load ptr, ptr %4, align 8, !tbaa !65
  %9 = getelementptr inbounds nuw %struct.mbedtls_ssl_handshake_params, ptr %8, i32 0, i32 66
  %10 = load i32, ptr %9, align 4, !tbaa !92
  %11 = zext i32 %10 to i64
  %12 = and i64 %11, 4202496
  switch i64 %12, label %22 [
    i64 8192, label %13
    i64 4194304, label %16
    i64 4202496, label %19
  ]

13:                                               ; preds = %1
  %14 = load ptr, ptr %4, align 8, !tbaa !65
  %15 = getelementptr inbounds nuw %struct.mbedtls_ssl_handshake_params, ptr %14, i32 0, i32 15
  store i8 1, ptr %15, align 8, !tbaa !98
  br label %24

16:                                               ; preds = %1
  %17 = load ptr, ptr %4, align 8, !tbaa !65
  %18 = getelementptr inbounds nuw %struct.mbedtls_ssl_handshake_params, ptr %17, i32 0, i32 15
  store i8 2, ptr %18, align 8, !tbaa !98
  br label %24

19:                                               ; preds = %1
  %20 = load ptr, ptr %4, align 8, !tbaa !65
  %21 = getelementptr inbounds nuw %struct.mbedtls_ssl_handshake_params, ptr %20, i32 0, i32 15
  store i8 4, ptr %21, align 8, !tbaa !98
  br label %24

22:                                               ; preds = %1
  %23 = load ptr, ptr %2, align 8, !tbaa !3
  call void (ptr, i32, ptr, i32, ptr, ...) @mbedtls_debug_print_msg(ptr noundef %23, i32 noundef 1, ptr noundef @.str, i32 noundef 1899, ptr noundef @.str.66)
  store i32 -28160, ptr %3, align 4, !tbaa !12
  br label %72

24:                                               ; preds = %19, %16, %13
  %25 = load ptr, ptr %2, align 8, !tbaa !3
  %26 = load ptr, ptr %4, align 8, !tbaa !65
  %27 = getelementptr inbounds nuw %struct.mbedtls_ssl_handshake_params, ptr %26, i32 0, i32 15
  %28 = load i8, ptr %27, align 8, !tbaa !98
  %29 = zext i8 %28 to i32
  %30 = call i32 @mbedtls_ssl_conf_tls13_is_kex_mode_enabled(ptr noundef %25, i32 noundef %29)
  %31 = icmp ne i32 %30, 0
  br i1 %31, label %39, label %32

32:                                               ; preds = %24
  store i32 -28160, ptr %3, align 4, !tbaa !12
  %33 = load ptr, ptr %2, align 8, !tbaa !3
  %34 = load ptr, ptr %4, align 8, !tbaa !65
  %35 = getelementptr inbounds nuw %struct.mbedtls_ssl_handshake_params, ptr %34, i32 0, i32 15
  %36 = load i8, ptr %35, align 8, !tbaa !98
  %37 = zext i8 %36 to i32
  %38 = call ptr @ssl_tls13_get_kex_mode_str(i32 noundef %37)
  call void (ptr, i32, ptr, i32, ptr, ...) @mbedtls_debug_print_msg(ptr noundef %33, i32 noundef 2, ptr noundef @.str, i32 noundef 1909, ptr noundef @.str.67, ptr noundef %38)
  br label %72

39:                                               ; preds = %24
  %40 = load ptr, ptr %2, align 8, !tbaa !3
  %41 = load ptr, ptr %4, align 8, !tbaa !65
  %42 = getelementptr inbounds nuw %struct.mbedtls_ssl_handshake_params, ptr %41, i32 0, i32 15
  %43 = load i8, ptr %42, align 8, !tbaa !98
  %44 = zext i8 %43 to i32
  %45 = call ptr @ssl_tls13_get_kex_mode_str(i32 noundef %44)
  call void (ptr, i32, ptr, i32, ptr, ...) @mbedtls_debug_print_msg(ptr noundef %40, i32 noundef 3, ptr noundef @.str, i32 noundef 1915, ptr noundef @.str.68, ptr noundef %45)
  %46 = load ptr, ptr %2, align 8, !tbaa !3
  %47 = call i32 @mbedtls_ssl_tls13_key_schedule_stage_early(ptr noundef %46)
  store i32 %47, ptr %3, align 4, !tbaa !12
  %48 = load i32, ptr %3, align 4, !tbaa !12
  %49 = icmp ne i32 %48, 0
  br i1 %49, label %50, label %53

50:                                               ; preds = %39
  %51 = load ptr, ptr %2, align 8, !tbaa !3
  %52 = load i32, ptr %3, align 4, !tbaa !12
  call void @mbedtls_debug_print_ret(ptr noundef %51, i32 noundef 1, ptr noundef @.str, i32 noundef 1935, ptr noundef @.str.69, i32 noundef %52)
  br label %72

53:                                               ; preds = %39
  %54 = load ptr, ptr %2, align 8, !tbaa !3
  %55 = call i32 @mbedtls_ssl_tls13_compute_handshake_transform(ptr noundef %54)
  store i32 %55, ptr %3, align 4, !tbaa !12
  %56 = load i32, ptr %3, align 4, !tbaa !12
  %57 = icmp ne i32 %56, 0
  br i1 %57, label %58, label %61

58:                                               ; preds = %53
  %59 = load ptr, ptr %2, align 8, !tbaa !3
  %60 = load i32, ptr %3, align 4, !tbaa !12
  call void @mbedtls_debug_print_ret(ptr noundef %59, i32 noundef 1, ptr noundef @.str, i32 noundef 1944, ptr noundef @.str.70, i32 noundef %60)
  br label %72

61:                                               ; preds = %53
  %62 = load ptr, ptr %2, align 8, !tbaa !3
  %63 = load ptr, ptr %4, align 8, !tbaa !65
  %64 = getelementptr inbounds nuw %struct.mbedtls_ssl_handshake_params, ptr %63, i32 0, i32 69
  %65 = load ptr, ptr %64, align 8, !tbaa !73
  call void @mbedtls_ssl_set_inbound_transform(ptr noundef %62, ptr noundef %65)
  %66 = load ptr, ptr %2, align 8, !tbaa !3
  call void (ptr, i32, ptr, i32, ptr, ...) @mbedtls_debug_print_msg(ptr noundef %66, i32 noundef 1, ptr noundef @.str, i32 noundef 1949, ptr noundef @.str.71)
  %67 = load ptr, ptr %2, align 8, !tbaa !3
  %68 = getelementptr inbounds nuw %struct.mbedtls_ssl_context, ptr %67, i32 0, i32 15
  %69 = load ptr, ptr %68, align 8, !tbaa !16
  %70 = load ptr, ptr %2, align 8, !tbaa !3
  %71 = getelementptr inbounds nuw %struct.mbedtls_ssl_context, ptr %70, i32 0, i32 12
  store ptr %69, ptr %71, align 8, !tbaa !99
  br label %72

72:                                               ; preds = %61, %58, %50, %32, %22
  %73 = load i32, ptr %3, align 4, !tbaa !12
  %74 = icmp ne i32 %73, 0
  br i1 %74, label %75, label %77

75:                                               ; preds = %72
  %76 = load ptr, ptr %2, align 8, !tbaa !3
  call void @mbedtls_ssl_pend_fatal_alert(ptr noundef %76, i8 noundef zeroext 40, i32 noundef -28160)
  br label %77

77:                                               ; preds = %75, %72
  %78 = load i32, ptr %3, align 4, !tbaa !12
  call void @llvm.lifetime.end.p0(i64 8, ptr %4) #10
  call void @llvm.lifetime.end.p0(i64 4, ptr %3) #10
  ret i32 %78
}