; Function Attrs: nounwind uwtable
define internal fastcc i32 @ssl_tls13_postprocess_server_hello(ptr noundef %0) unnamed_addr #0 {
  %2 = getelementptr inbounds nuw i8, ptr %0, i64 112
  %3 = load ptr, ptr %2, align 8, !tbaa !17
  %4 = getelementptr inbounds nuw i8, ptr %3, i64 3276
  %5 = load i32, ptr %4, align 4, !tbaa !75
  %6 = and i32 %5, 4202496
  switch i32 %6, label %.unreachabledefault [
    i32 8192, label %10
    i32 4194304, label %7
    i32 4202496, label %8
    i32 0, label %9
  ]

7:                                                ; preds = %1
  br label %10

8:                                                ; preds = %1
  br label %10

.unreachabledefault:                              ; preds = %1
  unreachable

9:                                                ; preds = %1
  tail call void (ptr, i32, ptr, i32, ptr, ...) @mbedtls_debug_print_msg(ptr noundef nonnull %0, i32 noundef 1, ptr noundef nonnull @.str, i32 noundef 1899, ptr noundef nonnull @.str.66) #12
  br label %28

10:                                               ; preds = %1, %8, %7
  %.sink = phi i8 [ 4, %8 ], [ 2, %7 ], [ 1, %1 ]
  %11 = getelementptr inbounds nuw i8, ptr %3, i64 56
  store i8 %.sink, ptr %11, align 8, !tbaa !90
  %12 = zext nneg i8 %.sink to i32
  %.val = load ptr, ptr %0, align 8, !tbaa !39
  %13 = getelementptr i8, ptr %.val, i64 32
  %.val.val = load i32, ptr %13, align 8, !tbaa !40
  %14 = and i32 %.val.val, %12
  %.not38 = icmp eq i32 %14, 0
  %switch.tableidx = add nsw i8 %.sink, -1
  br i1 %.not38, label %switch.lookup, label %switch.lookup40

switch.lookup:                                    ; preds = %10
  %15 = sext i8 %switch.tableidx to i64
  %switch.gep = getelementptr inbounds [4 x ptr], ptr @switch.table.ssl_tls13_postprocess_server_hello.19, i64 0, i64 %15
  %switch.load = load ptr, ptr %switch.gep, align 8
  tail call void (ptr, i32, ptr, i32, ptr, ...) @mbedtls_debug_print_msg(ptr noundef nonnull %0, i32 noundef 2, ptr noundef nonnull @.str, i32 noundef 1909, ptr noundef nonnull @.str.67, ptr noundef nonnull %switch.load) #12
  br label %28

switch.lookup40:                                  ; preds = %10
  %16 = sext i8 %switch.tableidx to i64
  %switch.gep42 = getelementptr inbounds [4 x ptr], ptr @switch.table.ssl_tls13_postprocess_server_hello.19, i64 0, i64 %16
  %switch.load43 = load ptr, ptr %switch.gep42, align 8
  tail call void (ptr, i32, ptr, i32, ptr, ...) @mbedtls_debug_print_msg(ptr noundef nonnull %0, i32 noundef 3, ptr noundef nonnull @.str, i32 noundef 1915, ptr noundef nonnull @.str.68, ptr noundef nonnull %switch.load43) #12
  %17 = tail call i32 @mbedtls_ssl_tls13_key_schedule_stage_early(ptr noundef nonnull %0) #12
  %.not29 = icmp eq i32 %17, 0
  br i1 %.not29, label %19, label %18

18:                                               ; preds = %switch.lookup40
  tail call void @mbedtls_debug_print_ret(ptr noundef nonnull %0, i32 noundef 1, ptr noundef nonnull @.str, i32 noundef 1935, ptr noundef nonnull @.str.69, i32 noundef %17) #12
  br label %28

19:                                               ; preds = %switch.lookup40
  %20 = tail call i32 @mbedtls_ssl_tls13_compute_handshake_transform(ptr noundef nonnull %0) #12
  %.not30 = icmp eq i32 %20, 0
  br i1 %.not30, label %22, label %21

21:                                               ; preds = %19
  tail call void @mbedtls_debug_print_ret(ptr noundef nonnull %0, i32 noundef 1, ptr noundef nonnull @.str, i32 noundef 1944, ptr noundef nonnull @.str.70, i32 noundef %20) #12
  br label %28

22:                                               ; preds = %19
  %23 = getelementptr inbounds nuw i8, ptr %3, i64 3296
  %24 = load ptr, ptr %23, align 8, !tbaa !96
  tail call void @mbedtls_ssl_set_inbound_transform(ptr noundef nonnull %0, ptr noundef %24) #12
  tail call void (ptr, i32, ptr, i32, ptr, ...) @mbedtls_debug_print_msg(ptr noundef nonnull %0, i32 noundef 1, ptr noundef nonnull @.str, i32 noundef 1949, ptr noundef nonnull @.str.71) #12
  %25 = getelementptr inbounds nuw i8, ptr %0, i64 104
  %26 = load ptr, ptr %25, align 8, !tbaa !7
  %27 = getelementptr inbounds nuw i8, ptr %0, i64 80
  store ptr %26, ptr %27, align 8, !tbaa !106
  br label %29

28:                                               ; preds = %9, %18, %21, %switch.lookup
  %.0.ph = phi i32 [ -28160, %switch.lookup ], [ %20, %21 ], [ %17, %18 ], [ -28160, %9 ]
  tail call void @mbedtls_ssl_pend_fatal_alert(ptr noundef nonnull %0, i8 noundef zeroext 40, i32 noundef -28160) #12
  br label %29

29:                                               ; preds = %22, %28
  %.037 = phi i32 [ %.0.ph, %28 ], [ 0, %22 ]
  ret i32 %.037
}